; Function Attrs: mustprogress nofree norecurse nosync nounwind willreturn memory(argmem: readwrite) uwtable
define noundef nonnull align 8 dereferenceable(32) ptr @_ZN6gmxapi6System4ImplaSEOS1_(ptr noundef nonnull returned align 8 dereferenceable(32) %0, ptr noundef nonnull align 8 dereferenceable(32) %1) local_unnamed_addr #2 align 2 {
  %.not = icmp eq ptr %0, %1
  br i1 %.not, label %10, label %3

3:                                                ; preds = %2
  %4 = load ptr, ptr %0, align 8
  %5 = load ptr, ptr %1, align 8
  store ptr %5, ptr %0, align 8
  store ptr %4, ptr %1, align 8
  %6 = getelementptr inbounds i8, ptr %0, i64 8
  %7 = getelementptr inbounds i8, ptr %1, i64 8
  %8 = load ptr, ptr %7, align 8
  %9 = load ptr, ptr %6, align 8
  store ptr %9, ptr %7, align 8
  store ptr %8, ptr %6, align 8
  br label %10

10:                                               ; preds = %3, %2
  ret ptr %0
}